target datalayout = "e-m:e-p270:32:32-p271:32:32-p272:64:64-i64:64-i128:128-f80:128-n8:16:32:64-S128"
target triple = "x86_64-unknown-linux-gnu"

@.str = private unnamed_addr constant [25 x i8] c"Unknown compression type\00", align 1
@_ZTIN7Iex_3_26ArgExcE = external constant ptr

; Function Attrs: mustprogress uwtable
define noundef i32 @_ZN7Imf_3_216numLinesInBufferENS_11CompressionE(i32 noundef %comp) #6 personality ptr @__gxx_personality_v0 {
entry:
  %retval = alloca i32, align 4
  %comp.addr = alloca i32, align 4
  %exn.slot = alloca ptr, align 8
  %ehselector.slot = alloca i32, align 4
  store i32 %comp, ptr %comp.addr, align 4
  %0 = load i32, ptr %comp.addr, align 4
  switch i32 %0, label %sw.default [
    i32 0, label %sw.bb
    i32 1, label %sw.bb
    i32 2, label %sw.bb
    i32 3, label %sw.bb1
    i32 4, label %sw.bb2
    i32 5, label %sw.bb3
    i32 6, label %sw.bb4
    i32 7, label %sw.bb4
    i32 8, label %sw.bb4
    i32 9, label %sw.bb5
  ]

sw.bb:                                            ; preds = %entry, %entry, %entry
  store i32 1, ptr %retval, align 4
  br label %return

sw.bb1:                                           ; preds = %entry
  store i32 16, ptr %retval, align 4
  br label %return

sw.bb2:                                           ; preds = %entry
  store i32 32, ptr %retval, align 4
  br label %return

sw.bb3:                                           ; preds = %entry
  store i32 16, ptr %retval, align 4
  br label %return

sw.bb4:                                           ; preds = %entry, %entry, %entry
  store i32 32, ptr %retval, align 4
  br label %return

sw.bb5:                                           ; preds = %entry
  store i32 256, ptr %retval, align 4
  br label %return

sw.default:                                       ; preds = %entry
  %exception = call ptr @__cxa_allocate_exception(i64 72) #3
  invoke void @_ZN7Iex_3_26ArgExcC1EPKc(ptr noundef nonnull align 8 dereferenceable(72) %exception, ptr noundef @.str)
          to label %invoke.cont unwind label %lpad

invoke.cont:                                      ; preds = %sw.default
  call void @__cxa_throw(ptr %exception, ptr @_ZTIN7Iex_3_26ArgExcE, ptr @_ZN7Iex_3_26ArgExcD1Ev) #12
  unreachable

lpad:                                             ; preds = %sw.default
  %1 = landingpad { ptr, i32 }
          cleanup
  %2 = extractvalue { ptr, i32 } %1, 0
  store ptr %2, ptr %exn.slot, align 8
  %3 = extractvalue { ptr, i32 } %1, 1
  store i32 %3, ptr %ehselector.slot, align 4
  call void @__cxa_free_exception(ptr %exception) #3
  br label %eh.resume

return:                                           ; preds = %sw.bb5, %sw.bb4, %sw.bb3, %sw.bb2, %sw.bb1, %sw.bb
  %4 = load i32, ptr %retval, align 4
  ret i32 %4

eh.resume:                                        ; preds = %lpad
  %exn = load ptr, ptr %exn.slot, align 8
  %sel = load i32, ptr %ehselector.slot, align 4
  %lpad.val = insertvalue { ptr, i32 } poison, ptr %exn, 0
  %lpad.val6 = insertvalue { ptr, i32 } %lpad.val, i32 %sel, 1
  resume { ptr, i32 } %lpad.val6
}