; Function Attrs: mustprogress uwtable
define noundef i32 @_ZN7Imf_3_216numLinesInBufferENS_11CompressionE(i32 noundef %comp) local_unnamed_addr #7 personality ptr @__gxx_personality_v0 {
entry:
  %0 = icmp ult i32 %comp, 10
  br i1 %0, label %switch.lookup, label %sw.default

sw.default:                                       ; preds = %entry
  %exception = tail call ptr @__cxa_allocate_exception(i64 72) #15
  invoke void @_ZN7Iex_3_26ArgExcC1EPKc(ptr noundef nonnull align 8 dereferenceable(72) %exception, ptr noundef nonnull @.str)
          to label %invoke.cont unwind label %lpad

invoke.cont:                                      ; preds = %sw.default
  tail call void @__cxa_throw(ptr nonnull %exception, ptr nonnull @_ZTIN7Iex_3_26ArgExcE, ptr nonnull @_ZN7Iex_3_26ArgExcD1Ev) #16
  unreachable

lpad:                                             ; preds = %sw.default
  %1 = landingpad { ptr, i32 }
          cleanup
  tail call void @__cxa_free_exception(ptr %exception) #15
  resume { ptr, i32 } %1

switch.lookup:                                    ; preds = %entry
  %2 = zext nneg i32 %comp to i64
  %switch.gep = getelementptr inbounds [10 x i32], ptr @switch.table._ZN7Imf_3_216numLinesInBufferENS_11CompressionE, i64 0, i64 %2
  %switch.load = load i32, ptr %switch.gep, align 4
  ret i32 %switch.load
}